; Function Attrs: mustprogress uwtable
define dso_local void @_ZN22cmWhileFunctionBlockerC2EP10cmMakefileSt6vectorI18cmListFileArgumentSaIS3_EE(ptr noundef nonnull align 8 dereferenceable(184) %0, ptr noundef %1, ptr nocapture noundef %2) unnamed_addr #3 align 2 personality ptr @__gxx_personality_v0 {
  store ptr getelementptr inbounds ({ [9 x ptr] }, ptr @_ZTV17cmFunctionBlocker, i64 0, i32 0, i64 2), ptr %0, align 8
  %4 = getelementptr inbounds i8, ptr %0, i64 8
  tail call void @_ZNSt7__cxx1112basic_stringIcSt11char_traitsIcESaIcEEC1Ev(ptr noundef nonnull align 8 dereferenceable(32) %4) #16
  %5 = getelementptr inbounds i8, ptr %0, i64 40
  tail call void @_ZNSt7__cxx1112basic_stringIcSt11char_traitsIcESaIcEEC1Ev(ptr noundef nonnull align 8 dereferenceable(32) %5) #16
  %6 = getelementptr inbounds i8, ptr %0, i64 72
  store i64 0, ptr %6, align 8
  %7 = getelementptr inbounds i8, ptr %0, i64 112
  store i8 0, ptr %7, align 8
  %8 = getelementptr inbounds i8, ptr %0, i64 120
  tail call void @llvm.memset.p0.i64(ptr noundef nonnull align 8 dereferenceable(24) %8, i8 0, i64 24, i1 false)
  %9 = getelementptr inbounds i8, ptr %0, i64 144
  store i32 1, ptr %9, align 8
  store ptr getelementptr inbounds ({ [9 x ptr] }, ptr @_ZTV22cmWhileFunctionBlocker, i64 0, i32 0, i64 2), ptr %0, align 8
  %10 = getelementptr inbounds i8, ptr %0, i64 152
  store ptr %1, ptr %10, align 8
  %11 = getelementptr inbounds i8, ptr %0, i64 160
  %12 = load ptr, ptr %2, align 8
  store ptr %12, ptr %11, align 8
  %13 = getelementptr inbounds i8, ptr %0, i64 168
  %14 = getelementptr inbounds i8, ptr %2, i64 8
  %15 = load ptr, ptr %14, align 8
  store ptr %15, ptr %13, align 8
  %16 = getelementptr inbounds i8, ptr %0, i64 176
  %17 = getelementptr inbounds i8, ptr %2, i64 16
  %18 = load ptr, ptr %17, align 8
  store ptr %18, ptr %16, align 8
  tail call void @llvm.memset.p0.i64(ptr noundef nonnull align 8 dereferenceable(24) %2, i8 0, i64 24, i1 false)
  %19 = load ptr, ptr %10, align 8
  invoke void @_ZN10cmMakefile13PushLoopBlockEv(ptr noundef nonnull align 8 dereferenceable(3520) %19)
          to label %20 unwind label %21

20:                                               ; preds = %3
  ret void

21:                                               ; preds = %3
  %22 = landingpad { ptr, i32 }
          cleanup
  tail call void @_ZNSt6vectorI18cmListFileArgumentSaIS0_EED2Ev(ptr noundef nonnull align 8 dereferenceable(24) %11) #16
  tail call void @_ZN17cmFunctionBlockerD2Ev(ptr noundef nonnull align 8 dereferenceable(148) %0) #16
  resume { ptr, i32 } %22
}